; Function Attrs: mustprogress nofree norecurse nosync nounwind willreturn memory(argmem: read) uwtable
define dso_local noundef zeroext i1 @_ZN4llvm16AArch64InstrInfo7isPreLdERKNS_12MachineInstrE(ptr nocapture noundef nonnull readonly align 8 dereferenceable(70) %0) local_unnamed_addr #9 align 2 {
  %2 = getelementptr inbounds nuw i8, ptr %0, i64 68
  %3 = load i16, ptr %2, align 4
  %switch.tableidx = add i16 %3, -4388
  %4 = icmp ult i16 %switch.tableidx, 61
  %switch.cast = zext nneg i16 %switch.tableidx to i61
  %switch.downshift = lshr i61 -1134621233074077695, %switch.cast
  %switch.masked = trunc i61 %switch.downshift to i1
  %.0 = select i1 %4, i1 %switch.masked, i1 false
  ret i1 %.0
}